target datalayout = "e-m:e-p270:32:32-p271:32:32-p272:64:64-i64:64-i128:128-f80:128-n8:16:32:64-S128"
target triple = "x86_64-pc-linux-gnu"

@.str.3 = private unnamed_addr constant [2 x i8] c"\0A\00", align 1
@.str.4 = private unnamed_addr constant [35 x i8] c"    flatten [options] [selection]\0A\00", align 1
@.str.5 = private unnamed_addr constant [80 x i8] c"This pass flattens the design by replacing cells by their implementation. This\0A\00", align 1
@.str.6 = private unnamed_addr constant [78 x i8] c"pass is very similar to the 'techmap' pass. The only difference is that this\0A\00", align 1
@.str.7 = private unnamed_addr constant [54 x i8] c"pass is using the current design as mapping library.\0A\00", align 1
@.str.8 = private unnamed_addr constant [74 x i8] c"Cells and/or modules with the 'keep_hierarchy' attribute set will not be\0A\00", align 1
@.str.9 = private unnamed_addr constant [28 x i8] c"flattened by this command.\0A\00", align 1
@.str.10 = private unnamed_addr constant [9 x i8] c"    -wb\0A\00", align 1
@.str.11 = private unnamed_addr constant [66 x i8] c"        Ignore the 'whitebox' attribute on cell implementations.\0A\00", align 1
@.str.12 = private unnamed_addr constant [18 x i8] c"    -noscopeinfo\0A\00", align 1
@.str.13 = private unnamed_addr constant [80 x i8] c"        Do not create '$scopeinfo' cells that preserve attributes of cells and\0A\00", align 1
@.str.14 = private unnamed_addr constant [76 x i8] c"        modules that were removed during flattening. With this option, the\0A\00", align 1
@.str.15 = private unnamed_addr constant [78 x i8] c"        'src' attribute of a given cell is merged into all objects replacing\0A\00", align 1
@.str.16 = private unnamed_addr constant [77 x i8] c"        that cell, with multiple distinct 'src' locations separated by '|'.\0A\00", align 1
@.str.17 = private unnamed_addr constant [72 x i8] c"        Without this option these 'src' locations can be found via the\0A\00", align 1
@.str.18 = private unnamed_addr constant [69 x i8] c"        cell_src' and 'module_src' attribute of '$scopeinfo' cells.\0A\00", align 1
@.str.19 = private unnamed_addr constant [16 x i8] c"    -scopename\0A\00", align 1
@.str.20 = private unnamed_addr constant [77 x i8] c"        Create 'scopename' attributes for objects with a private name. This\0A\00", align 1
@.str.21 = private unnamed_addr constant [77 x i8] c"        attribute records the 'hdlname' of the enclosing scope. For objects\0A\00", align 1
@.str.22 = private unnamed_addr constant [71 x i8] c"        with a public name the enclosing scope can be found via their\0A\00", align 1
@.str.23 = private unnamed_addr constant [30 x i8] c"        'hdlname' attribute.\0A\00", align 1

; Function Attrs: mustprogress uwtable
define internal void @_ZN12_GLOBAL__N_111FlattenPass4helpEv(ptr noundef nonnull align 8 dereferenceable(104) %0) unnamed_addr #4 align 2 {
  %2 = alloca ptr, align 8
  store ptr %0, ptr %2, align 8
  call void (ptr, ...) @_ZN5Yosys3logEPKcz(ptr noundef @.str.3)
  call void (ptr, ...) @_ZN5Yosys3logEPKcz(ptr noundef @.str.4)
  call void (ptr, ...) @_ZN5Yosys3logEPKcz(ptr noundef @.str.3)
  call void (ptr, ...) @_ZN5Yosys3logEPKcz(ptr noundef @.str.5)
  call void (ptr, ...) @_ZN5Yosys3logEPKcz(ptr noundef @.str.6)
  call void (ptr, ...) @_ZN5Yosys3logEPKcz(ptr noundef @.str.7)
  call void (ptr, ...) @_ZN5Yosys3logEPKcz(ptr noundef @.str.3)
  call void (ptr, ...) @_ZN5Yosys3logEPKcz(ptr noundef @.str.8)
  call void (ptr, ...) @_ZN5Yosys3logEPKcz(ptr noundef @.str.9)
  call void (ptr, ...) @_ZN5Yosys3logEPKcz(ptr noundef @.str.3)
  call void (ptr, ...) @_ZN5Yosys3logEPKcz(ptr noundef @.str.10)
  call void (ptr, ...) @_ZN5Yosys3logEPKcz(ptr noundef @.str.11)
  call void (ptr, ...) @_ZN5Yosys3logEPKcz(ptr noundef @.str.3)
  call void (ptr, ...) @_ZN5Yosys3logEPKcz(ptr noundef @.str.12)
  call void (ptr, ...) @_ZN5Yosys3logEPKcz(ptr noundef @.str.13)
  call void (ptr, ...) @_ZN5Yosys3logEPKcz(ptr noundef @.str.14)
  call void (ptr, ...) @_ZN5Yosys3logEPKcz(ptr noundef @.str.15)
  call void (ptr, ...) @_ZN5Yosys3logEPKcz(ptr noundef @.str.16)
  call void (ptr, ...) @_ZN5Yosys3logEPKcz(ptr noundef @.str.17)
  call void (ptr, ...) @_ZN5Yosys3logEPKcz(ptr noundef @.str.18)
  call void (ptr, ...) @_ZN5Yosys3logEPKcz(ptr noundef @.str.3)
  call void (ptr, ...) @_ZN5Yosys3logEPKcz(ptr noundef @.str.19)
  call void (ptr, ...) @_ZN5Yosys3logEPKcz(ptr noundef @.str.20)
  call void (ptr, ...) @_ZN5Yosys3logEPKcz(ptr noundef @.str.21)
  call void (ptr, ...) @_ZN5Yosys3logEPKcz(ptr noundef @.str.22)
  call void (ptr, ...) @_ZN5Yosys3logEPKcz(ptr noundef @.str.23)
  call void (ptr, ...) @_ZN5Yosys3logEPKcz(ptr noundef @.str.3)
  ret void
}